; Function Attrs: nounwind uwtable
define ptr @l___private_Lean_Meta_Tactic_Grind_EMatchTheorem_0__Lean_Meta_Grind_diff___boxed(ptr noundef %0, ptr noundef %1) local_unnamed_addr #1 {
  %3 = getelementptr inbounds nuw i8, ptr %1, i64 8
  %4 = load ptr, ptr %3, align 8, !tbaa !9
  %5 = ptrtoint ptr %4 to i64
  %6 = and i64 %5, 1
  %.not.i4 = icmp eq i64 %6, 0
  br i1 %.not.i4, label %lean_nat_eq.exit.i, label %7, !prof !14

7:                                                ; preds = %2
  %8 = icmp eq ptr %4, inttoptr (i64 1 to ptr)
  br i1 %8, label %l___private_Lean_Meta_Tactic_Grind_EMatchTheorem_0__Lean_Meta_Grind_diff.exit, label %10

lean_nat_eq.exit.i:                               ; preds = %2
  %9 = tail call zeroext i1 @lean_nat_big_eq(ptr noundef %4, ptr noundef nonnull inttoptr (i64 1 to ptr)) #9
  br i1 %9, label %l___private_Lean_Meta_Tactic_Grind_EMatchTheorem_0__Lean_Meta_Grind_diff.exit, label %10

10:                                               ; preds = %lean_nat_eq.exit.i, %7
  %11 = tail call ptr @l_List_filterTR_loop___at___private_Lean_Meta_Tactic_Grind_EMatchTheorem_0__Lean_Meta_Grind_diff___spec__1(ptr noundef nonnull readonly %1, ptr noundef %0, ptr noundef nonnull inttoptr (i64 1 to ptr))
  br label %l___private_Lean_Meta_Tactic_Grind_EMatchTheorem_0__Lean_Meta_Grind_diff.exit

l___private_Lean_Meta_Tactic_Grind_EMatchTheorem_0__Lean_Meta_Grind_diff.exit: ; preds = %7, %lean_nat_eq.exit.i, %10
  %.0.i = phi ptr [ %11, %10 ], [ %0, %lean_nat_eq.exit.i ], [ %0, %7 ]
  %12 = ptrtoint ptr %1 to i64
  %13 = and i64 %12, 1
  %.not = icmp eq i64 %13, 0
  br i1 %.not, label %14, label %lean_dec.exit

14:                                               ; preds = %l___private_Lean_Meta_Tactic_Grind_EMatchTheorem_0__Lean_Meta_Grind_diff.exit
  %15 = load i32, ptr %1, align 4, !tbaa !4
  %16 = icmp sgt i32 %15, 1
  br i1 %16, label %17, label %19, !prof !11

17:                                               ; preds = %14
  %18 = add nsw i32 %15, -1
  store i32 %18, ptr %1, align 4, !tbaa !4
  br label %lean_dec.exit

19:                                               ; preds = %14
  %.not.i = icmp eq i32 %15, 0
  br i1 %.not.i, label %lean_dec.exit, label %20

20:                                               ; preds = %19
  tail call void @lean_dec_ref_cold(ptr noundef nonnull %1) #9
  br label %lean_dec.exit

lean_dec.exit:                                    ; preds = %20, %19, %17, %l___private_Lean_Meta_Tactic_Grind_EMatchTheorem_0__Lean_Meta_Grind_diff.exit
  ret ptr %.0.i
}